; Function Attrs: mustprogress nounwind uwtable
define hidden noundef i64 @_ZN20JfrCheckpointManager33write_static_type_set_and_threadsEv(ptr nocapture noundef nonnull readonly align 8 dereferenceable(32) %0) local_unnamed_addr #1 align 2 {
  %2 = alloca %class.JfrCheckpointWriter, align 8
  %3 = tail call align 8 ptr @llvm.threadlocal.address.p0(ptr align 8 @_ZN6Thread12_thr_currentE)
  %4 = load ptr, ptr %3, align 8
  call void @llvm.lifetime.start.p0(i64 80, ptr nonnull %2)
  call void @_ZN19JfrCheckpointWriterC1EbP6Threadb17JfrCheckpointType(ptr noundef nonnull align 8 dereferenceable(73) %2, i1 noundef zeroext true, ptr noundef %4, i1 noundef zeroext true, i32 noundef 4) #20
  call void @_ZN14JfrTypeManager18write_static_typesER19JfrCheckpointWriter(ptr noundef nonnull align 8 dereferenceable(73) %2) #20
  call void @_ZN19JfrCheckpointWriterD1Ev(ptr noundef nonnull align 8 dereferenceable(73) %2) #20
  call void @llvm.lifetime.end.p0(i64 80, ptr nonnull %2)
  %5 = call noundef i64 @_ZN20JfrCheckpointManager13write_threadsEP10JavaThread(ptr nonnull align 8 poison, ptr noundef %4)
  %6 = call noundef i64 @_ZN20JfrCheckpointManager5writeEv(ptr noundef nonnull align 8 dereferenceable(32) %0)
  ret i64 %6
}